target datalayout = "e-m:e-p270:32:32-p271:32:32-p272:64:64-i64:64-i128:128-f80:128-n8:16:32:64-S128"
target triple = "x86_64-pc-linux-gnu"

%struct.nid_triple = type { i32, i32, i32 }

; Function Attrs: nounwind uwtable
define internal i32 @sigx_cmp(ptr noundef %0, ptr noundef %1) #0 {
  %3 = alloca i32, align 4
  %4 = alloca ptr, align 8
  %5 = alloca ptr, align 8
  %6 = alloca i32, align 4
  %7 = alloca i32, align 4
  store ptr %0, ptr %4, align 8, !tbaa !12
  store ptr %1, ptr %5, align 8, !tbaa !12
  call void @llvm.lifetime.start.p0(i64 4, ptr %6) #4
  %8 = load ptr, ptr %4, align 8, !tbaa !12
  %9 = load ptr, ptr %8, align 8, !tbaa !12
  %10 = getelementptr inbounds nuw %struct.nid_triple, ptr %9, i32 0, i32 1
  %11 = load i32, ptr %10, align 4, !tbaa !15
  %12 = load ptr, ptr %5, align 8, !tbaa !12
  %13 = load ptr, ptr %12, align 8, !tbaa !12
  %14 = getelementptr inbounds nuw %struct.nid_triple, ptr %13, i32 0, i32 1
  %15 = load i32, ptr %14, align 4, !tbaa !15
  %16 = sub nsw i32 %11, %15
  store i32 %16, ptr %6, align 4, !tbaa !3
  %17 = load i32, ptr %6, align 4, !tbaa !3
  %18 = icmp ne i32 %17, 0
  br i1 %18, label %19, label %27

19:                                               ; preds = %2
  %20 = load ptr, ptr %5, align 8, !tbaa !12
  %21 = load ptr, ptr %20, align 8, !tbaa !12
  %22 = getelementptr inbounds nuw %struct.nid_triple, ptr %21, i32 0, i32 1
  %23 = load i32, ptr %22, align 4, !tbaa !15
  %24 = icmp ne i32 %23, 0
  br i1 %24, label %25, label %27

25:                                               ; preds = %19
  %26 = load i32, ptr %6, align 4, !tbaa !3
  store i32 %26, ptr %3, align 4
  store i32 1, ptr %7, align 4
  br label %37

27:                                               ; preds = %19, %2
  %28 = load ptr, ptr %4, align 8, !tbaa !12
  %29 = load ptr, ptr %28, align 8, !tbaa !12
  %30 = getelementptr inbounds nuw %struct.nid_triple, ptr %29, i32 0, i32 2
  %31 = load i32, ptr %30, align 4, !tbaa !16
  %32 = load ptr, ptr %5, align 8, !tbaa !12
  %33 = load ptr, ptr %32, align 8, !tbaa !12
  %34 = getelementptr inbounds nuw %struct.nid_triple, ptr %33, i32 0, i32 2
  %35 = load i32, ptr %34, align 4, !tbaa !16
  %36 = sub nsw i32 %31, %35
  store i32 %36, ptr %3, align 4
  store i32 1, ptr %7, align 4
  br label %37

37:                                               ; preds = %27, %25
  call void @llvm.lifetime.end.p0(i64 4, ptr %6) #4
  %38 = load i32, ptr %3, align 4
  ret i32 %38
}

; Function Attrs: nounwind uwtable
define internal i32 @sigx_cmp_BSEARCH_CMP_FN(ptr noundef %0, ptr noundef %1) #0 {
  %3 = alloca ptr, align 8
  %4 = alloca ptr, align 8
  %5 = alloca ptr, align 8
  %6 = alloca ptr, align 8
  store ptr %0, ptr %3, align 8, !tbaa !12
  store ptr %1, ptr %4, align 8, !tbaa !12
  call void @llvm.lifetime.start.p0(i64 8, ptr %5) #4
  %7 = load ptr, ptr %3, align 8, !tbaa !12
  store ptr %7, ptr %5, align 8, !tbaa !12
  call void @llvm.lifetime.start.p0(i64 8, ptr %6) #4
  %8 = load ptr, ptr %4, align 8, !tbaa !12
  store ptr %8, ptr %6, align 8, !tbaa !12
  %9 = load ptr, ptr %5, align 8, !tbaa !12
  %10 = load ptr, ptr %6, align 8, !tbaa !12
  %11 = call i32 @sigx_cmp(ptr noundef %9, ptr noundef %10)
  call void @llvm.lifetime.end.p0(i64 8, ptr %6) #4
  call void @llvm.lifetime.end.p0(i64 8, ptr %5) #4
  ret i32 %11
}